; Function Attrs: mustprogress uwtable
define internal fastcc void @_ZN6icu_7712_GLOBAL__N_130initializeSystemDefaultCenturyEv() unnamed_addr #0 personality ptr @__gxx_personality_v0 {
  %1 = alloca i32, align 4
  %2 = alloca %"class.icu_77::HebrewCalendar", align 8
  %3 = alloca %"class.icu_77::Locale", align 8
  call void @llvm.lifetime.start.p0(i64 4, ptr nonnull %1) #8
  store i32 0, ptr %1, align 4, !tbaa !6
  call void @llvm.lifetime.start.p0(i64 192, ptr nonnull %2) #8
  call void @llvm.lifetime.start.p0(i64 224, ptr nonnull %3) #8
  call void @_ZN6icu_776LocaleC1EPKcS2_S2_S2_(ptr noundef nonnull align 8 dereferenceable(217) %3, ptr noundef nonnull @.str.2, ptr noundef null, ptr noundef null, ptr noundef null)
  invoke void @_ZN6icu_7714HebrewCalendarC1ERKNS_6LocaleER10UErrorCode(ptr noundef nonnull align 8 dereferenceable(192) %2, ptr noundef nonnull align 8 dereferenceable(217) %3, ptr noundef nonnull align 4 dereferenceable(4) %1)
          to label %4 unwind label %7

4:                                                ; preds = %0
  call void @_ZN6icu_776LocaleD1Ev(ptr noundef nonnull align 8 dereferenceable(217) %3) #8
  call void @llvm.lifetime.end.p0(i64 224, ptr nonnull %3) #8
  %5 = load i32, ptr %1, align 4, !tbaa !6
  %6 = icmp slt i32 %5, 1
  br i1 %6, label %9, label %18

7:                                                ; preds = %0
  %8 = landingpad { ptr, i32 }
          cleanup
  call void @_ZN6icu_776LocaleD1Ev(ptr noundef nonnull align 8 dereferenceable(217) %3) #8
  call void @llvm.lifetime.end.p0(i64 224, ptr nonnull %3) #8
  br label %21

9:                                                ; preds = %4
  %10 = invoke noundef double @_ZN6icu_778Calendar6getNowEv()
          to label %11 unwind label %19

11:                                               ; preds = %9
  invoke void @_ZN6icu_778Calendar15setTimeInMillisEdR10UErrorCode(ptr noundef nonnull align 8 dereferenceable(192) %2, double noundef %10, ptr noundef nonnull align 4 dereferenceable(4) %1)
          to label %_ZN6icu_778Calendar7setTimeEdR10UErrorCode.exit unwind label %19

_ZN6icu_778Calendar7setTimeEdR10UErrorCode.exit:  ; preds = %11
  %12 = load i32, ptr %1, align 4, !tbaa !6
  %13 = icmp slt i32 %12, 1
  br i1 %13, label %14, label %_ZN6icu_7714HebrewCalendar3addE19UCalendarDateFieldsiR10UErrorCode.exit

14:                                               ; preds = %_ZN6icu_778Calendar7setTimeEdR10UErrorCode.exit
  invoke void @_ZN6icu_778Calendar3addE19UCalendarDateFieldsiR10UErrorCode(ptr noundef nonnull align 8 dereferenceable(192) %2, i32 noundef 1, i32 noundef -80, ptr noundef nonnull align 4 dereferenceable(4) %1)
          to label %_ZN6icu_7714HebrewCalendar3addE19UCalendarDateFieldsiR10UErrorCode.exit unwind label %19

_ZN6icu_7714HebrewCalendar3addE19UCalendarDateFieldsiR10UErrorCode.exit: ; preds = %_ZN6icu_778Calendar7setTimeEdR10UErrorCode.exit, %14
  %15 = invoke noundef double @_ZNK6icu_778Calendar15getTimeInMillisER10UErrorCode(ptr noundef nonnull align 8 dereferenceable(192) %2, ptr noundef nonnull align 4 dereferenceable(4) %1)
          to label %_ZNK6icu_778Calendar7getTimeER10UErrorCode.exit unwind label %19

_ZNK6icu_778Calendar7getTimeER10UErrorCode.exit:  ; preds = %_ZN6icu_7714HebrewCalendar3addE19UCalendarDateFieldsiR10UErrorCode.exit
  store double %15, ptr @_ZN6icu_7712_GLOBAL__N_126gSystemDefaultCenturyStartE, align 8, !tbaa !23
  %16 = invoke noundef i32 @_ZNK6icu_778Calendar3getE19UCalendarDateFieldsR10UErrorCode(ptr noundef nonnull align 8 dereferenceable(192) %2, i32 noundef 1, ptr noundef nonnull align 4 dereferenceable(4) %1)
          to label %17 unwind label %19

17:                                               ; preds = %_ZNK6icu_778Calendar7getTimeER10UErrorCode.exit
  store i32 %16, ptr @_ZN6icu_7712_GLOBAL__N_130gSystemDefaultCenturyStartYearE, align 4, !tbaa !9
  br label %18

18:                                               ; preds = %4, %17
  call void @_ZN6icu_7714HebrewCalendarD1Ev(ptr noundef nonnull align 8 dereferenceable(192) %2) #8
  call void @llvm.lifetime.end.p0(i64 192, ptr nonnull %2) #8
  call void @llvm.lifetime.end.p0(i64 4, ptr nonnull %1) #8
  ret void

19:                                               ; preds = %_ZN6icu_7714HebrewCalendar3addE19UCalendarDateFieldsiR10UErrorCode.exit, %14, %11, %_ZNK6icu_778Calendar7getTimeER10UErrorCode.exit, %9
  %20 = landingpad { ptr, i32 }
          cleanup
  call void @_ZN6icu_7714HebrewCalendarD1Ev(ptr noundef nonnull align 8 dereferenceable(192) %2) #8
  br label %21

21:                                               ; preds = %19, %7
  %.pn = phi { ptr, i32 } [ %20, %19 ], [ %8, %7 ]
  call void @llvm.lifetime.end.p0(i64 192, ptr nonnull %2) #8
  call void @llvm.lifetime.end.p0(i64 4, ptr nonnull %1) #8
  resume { ptr, i32 } %.pn
}